target datalayout = "e-m:e-p270:32:32-p271:32:32-p272:64:64-i64:64-i128:128-f80:128-n8:16:32:64-S128"
target triple = "x86_64-pc-linux-gnu"

%struct._gvsp_packet_info = type { i32, i8, i16, i16, i64, i32, i32, i32, i32, i32 }

@hf_gvsp_payloadtype = internal global i32 0, align 4
@hf_gvsp_sizey = internal global i32 0, align 4
@hf_gvsp_payloadlength = internal global i32 0, align 4
@hf_gvsp_multipart_data_type = internal global i32 0, align 4
@hf_gvsp_partlength = internal global i32 0, align 4
@hf_gvsp_data_type_specific = internal global i32 0, align 4
@hf_gvsp_chunk_data_payload_length_hex = internal global i32 0, align 4
@hf_gvsp_chunk_layout_id_hex = internal global i32 0, align 4
@ett_gvsp_partinfo_trailer = internal global i32 0, align 4
@.str.716 = private unnamed_addr constant [19 x i8] c"Part Specific Data\00", align 1

; Function Attrs: null_pointer_is_valid sspstrong uwtable
define internal i32 @dissect_extra_chunk_info(ptr noundef %0, ptr noundef %1, ptr noundef %2, i32 noundef %3) #0 {
  %5 = alloca ptr, align 8
  %6 = alloca ptr, align 8
  %7 = alloca ptr, align 8
  %8 = alloca i32, align 4
  store ptr %0, ptr %5, align 8
  store ptr %1, ptr %6, align 8
  store ptr %2, ptr %7, align 8
  store i32 %3, ptr %8, align 4
  %9 = load ptr, ptr %5, align 8
  %10 = load i32, ptr @hf_gvsp_chunk_data_payload_length_hex, align 4
  %11 = load ptr, ptr %6, align 8
  %12 = load i32, ptr %8, align 4
  %13 = call ptr @proto_tree_add_item(ptr noundef %9, i32 noundef %10, ptr noundef %11, i32 noundef %12, i32 noundef 4, i32 noundef 0)
  %14 = load ptr, ptr %5, align 8
  %15 = load i32, ptr @hf_gvsp_chunk_layout_id_hex, align 4
  %16 = load ptr, ptr %6, align 8
  %17 = load i32, ptr %8, align 4
  %18 = add i32 %17, 4
  %19 = call ptr @proto_tree_add_item(ptr noundef %14, i32 noundef %15, ptr noundef %16, i32 noundef %18, i32 noundef 4, i32 noundef 0)
  ret i32 8
}

; Function Attrs: null_pointer_is_valid sspstrong uwtable
define internal i32 @dissect_multi_part_trailer(ptr noundef %0, ptr noundef %1, ptr noundef %2, i32 noundef %3) #0 {
  %5 = alloca ptr, align 8
  %6 = alloca ptr, align 8
  %7 = alloca ptr, align 8
  %8 = alloca i32, align 4
  %9 = alloca i32, align 4
  %10 = alloca i32, align 4
  %11 = alloca i32, align 4
  %12 = alloca i16, align 2
  %13 = alloca ptr, align 8
  store ptr %0, ptr %5, align 8
  store ptr %1, ptr %6, align 8
  store ptr %2, ptr %7, align 8
  store i32 %3, ptr %8, align 4
  call void @llvm.lifetime.start.p0(i64 4, ptr %9) #7
  %14 = load ptr, ptr %6, align 8
  %15 = load i32, ptr %8, align 4
  %16 = add i32 %15, 4
  %17 = call i32 @tvb_reported_length_remaining(ptr noundef %14, i32 noundef %16)
  %18 = sdiv i32 %17, 16
  store i32 %18, ptr %9, align 4
  call void @llvm.lifetime.start.p0(i64 4, ptr %10) #7
  store i32 0, ptr %10, align 4
  call void @llvm.lifetime.start.p0(i64 4, ptr %11) #7
  store i32 0, ptr %11, align 4
  %19 = load ptr, ptr %5, align 8
  %20 = load i32, ptr @hf_gvsp_payloadtype, align 4
  %21 = load ptr, ptr %6, align 8
  %22 = load i32, ptr %8, align 4
  %23 = add i32 %22, 2
  %24 = call ptr @proto_tree_add_item(ptr noundef %19, i32 noundef %20, ptr noundef %21, i32 noundef %23, i32 noundef 2, i32 noundef 0)
  store i32 0, ptr %10, align 4
  br label %25

25:                                               ; preds = %98, %4
  %26 = load i32, ptr %10, align 4
  %27 = load i32, ptr %9, align 4
  %28 = icmp slt i32 %26, %27
  br i1 %28, label %29, label %101

29:                                               ; preds = %25
  call void @llvm.lifetime.start.p0(i64 2, ptr %12) #7
  %30 = load ptr, ptr %6, align 8
  %31 = load i32, ptr %8, align 4
  %32 = add i32 %31, 4
  %33 = load i32, ptr %10, align 4
  %34 = mul i32 %33, 16
  %35 = add i32 %32, %34
  %36 = call zeroext i16 @tvb_get_ntohs(ptr noundef %30, i32 noundef %35)
  store i16 %36, ptr %12, align 2
  call void @llvm.lifetime.start.p0(i64 8, ptr %13) #7
  %37 = load ptr, ptr %5, align 8
  %38 = load ptr, ptr %6, align 8
  %39 = load i32, ptr %8, align 4
  %40 = add i32 %39, 4
  %41 = load i32, ptr %10, align 4
  %42 = mul i32 %41, 16
  %43 = add i32 %40, %42
  %44 = load i32, ptr @ett_gvsp_partinfo_trailer, align 4
  %45 = call ptr @proto_tree_add_subtree(ptr noundef %37, ptr noundef %38, i32 noundef %43, i32 noundef 16, i32 noundef %44, ptr noundef null, ptr noundef @.str.716)
  store ptr %45, ptr %13, align 8
  %46 = load ptr, ptr %13, align 8
  %47 = load i32, ptr @hf_gvsp_multipart_data_type, align 4
  %48 = load ptr, ptr %6, align 8
  %49 = load i32, ptr %8, align 4
  %50 = add i32 %49, 4
  %51 = load i32, ptr %10, align 4
  %52 = mul i32 %51, 16
  %53 = add i32 %50, %52
  %54 = call ptr @proto_tree_add_item(ptr noundef %46, i32 noundef %47, ptr noundef %48, i32 noundef %53, i32 noundef 2, i32 noundef 0)
  %55 = load ptr, ptr %13, align 8
  %56 = load i32, ptr @hf_gvsp_partlength, align 4
  %57 = load ptr, ptr %6, align 8
  %58 = load i32, ptr %8, align 4
  %59 = add i32 %58, 6
  %60 = load i32, ptr %10, align 4
  %61 = mul i32 %60, 16
  %62 = add i32 %59, %61
  %63 = call ptr @proto_tree_add_item(ptr noundef %55, i32 noundef %56, ptr noundef %57, i32 noundef %62, i32 noundef 6, i32 noundef 0)
  %64 = load i16, ptr %12, align 2
  %65 = zext i16 %64 to i32
  switch i32 %65, label %76 [
    i32 1, label %66
    i32 2, label %66
    i32 3, label %66
    i32 4, label %66
    i32 5, label %66
    i32 6, label %66
    i32 7, label %66
    i32 8, label %66
    i32 9, label %66
  ]

66:                                               ; preds = %29, %29, %29, %29, %29, %29, %29, %29, %29
  %67 = load ptr, ptr %13, align 8
  %68 = load i32, ptr @hf_gvsp_sizey, align 4
  %69 = load ptr, ptr %6, align 8
  %70 = load i32, ptr %8, align 4
  %71 = add i32 %70, 12
  %72 = load i32, ptr %10, align 4
  %73 = mul i32 %72, 16
  %74 = add i32 %71, %73
  %75 = call ptr @proto_tree_add_item(ptr noundef %67, i32 noundef %68, ptr noundef %69, i32 noundef %74, i32 noundef 4, i32 noundef 0)
  br label %97

76:                                               ; preds = %29
  store i32 0, ptr %11, align 4
  br label %77

77:                                               ; preds = %93, %76
  %78 = load i32, ptr %11, align 4
  %79 = icmp slt i32 %78, 2
  br i1 %79, label %80, label %96

80:                                               ; preds = %77
  %81 = load ptr, ptr %13, align 8
  %82 = load i32, ptr @hf_gvsp_data_type_specific, align 4
  %83 = load ptr, ptr %6, align 8
  %84 = load i32, ptr %8, align 4
  %85 = add i32 %84, 12
  %86 = load i32, ptr %10, align 4
  %87 = mul i32 %86, 16
  %88 = add i32 %85, %87
  %89 = load i32, ptr %11, align 4
  %90 = mul i32 4, %89
  %91 = add i32 %88, %90
  %92 = call ptr @proto_tree_add_item(ptr noundef %81, i32 noundef %82, ptr noundef %83, i32 noundef %91, i32 noundef 4, i32 noundef 0)
  br label %93

93:                                               ; preds = %80
  %94 = load i32, ptr %11, align 4
  %95 = add i32 %94, 1
  store i32 %95, ptr %11, align 4
  br label %77, !llvm.loop !11

96:                                               ; preds = %77
  br label %97

97:                                               ; preds = %96, %66
  call void @llvm.lifetime.end.p0(i64 8, ptr %13) #7
  call void @llvm.lifetime.end.p0(i64 2, ptr %12) #7
  br label %98

98:                                               ; preds = %97
  %99 = load i32, ptr %10, align 4
  %100 = add i32 %99, 1
  store i32 %100, ptr %10, align 4
  br label %25, !llvm.loop !12

101:                                              ; preds = %25
  %102 = load i32, ptr %9, align 4
  %103 = mul i32 %102, 16
  %104 = add i32 4, %103
  call void @llvm.lifetime.end.p0(i64 4, ptr %11) #7
  call void @llvm.lifetime.end.p0(i64 4, ptr %10) #7
  call void @llvm.lifetime.end.p0(i64 4, ptr %9) #7
  ret i32 %104
}

; Function Attrs: null_pointer_is_valid sspstrong uwtable
define internal i32 @dissect_generic_trailer(ptr noundef %0, ptr noundef %1, ptr noundef %2, i32 noundef %3) #0 {
  %5 = alloca ptr, align 8
  %6 = alloca ptr, align 8
  %7 = alloca ptr, align 8
  %8 = alloca i32, align 4
  store ptr %0, ptr %5, align 8
  store ptr %1, ptr %6, align 8
  store ptr %2, ptr %7, align 8
  store i32 %3, ptr %8, align 4
  %9 = load ptr, ptr %5, align 8
  %10 = load i32, ptr @hf_gvsp_payloadtype, align 4
  %11 = load ptr, ptr %6, align 8
  %12 = load i32, ptr %8, align 4
  %13 = add i32 %12, 2
  %14 = call ptr @proto_tree_add_item(ptr noundef %9, i32 noundef %10, ptr noundef %11, i32 noundef %13, i32 noundef 2, i32 noundef 0)
  ret i32 4
}

; Function Attrs: null_pointer_is_valid sspstrong uwtable
define internal i32 @dissect_extended_chunk_data_trailer(ptr noundef %0, ptr noundef %1, ptr noundef %2, i32 noundef %3) #0 {
  %5 = alloca ptr, align 8
  %6 = alloca ptr, align 8
  %7 = alloca ptr, align 8
  %8 = alloca i32, align 4
  store ptr %0, ptr %5, align 8
  store ptr %1, ptr %6, align 8
  store ptr %2, ptr %7, align 8
  store i32 %3, ptr %8, align 4
  %9 = load ptr, ptr %5, align 8
  %10 = load i32, ptr @hf_gvsp_payloadtype, align 4
  %11 = load ptr, ptr %6, align 8
  %12 = load i32, ptr %8, align 4
  %13 = add i32 %12, 2
  %14 = call ptr @proto_tree_add_item(ptr noundef %9, i32 noundef %10, ptr noundef %11, i32 noundef %13, i32 noundef 2, i32 noundef 0)
  %15 = load ptr, ptr %5, align 8
  %16 = load i32, ptr @hf_gvsp_payloadlength, align 4
  %17 = load ptr, ptr %6, align 8
  %18 = load i32, ptr %8, align 4
  %19 = add i32 %18, 4
  %20 = call ptr @proto_tree_add_item(ptr noundef %15, i32 noundef %16, ptr noundef %17, i32 noundef %19, i32 noundef 4, i32 noundef 0)
  %21 = load ptr, ptr %5, align 8
  %22 = load i32, ptr @hf_gvsp_sizey, align 4
  %23 = load ptr, ptr %6, align 8
  %24 = load i32, ptr %8, align 4
  %25 = add i32 %24, 8
  %26 = call ptr @proto_tree_add_item(ptr noundef %21, i32 noundef %22, ptr noundef %23, i32 noundef %25, i32 noundef 4, i32 noundef 0)
  %27 = load ptr, ptr %5, align 8
  %28 = load i32, ptr @hf_gvsp_chunk_layout_id_hex, align 4
  %29 = load ptr, ptr %6, align 8
  %30 = load i32, ptr %8, align 4
  %31 = add i32 %30, 12
  %32 = call ptr @proto_tree_add_item(ptr noundef %27, i32 noundef %28, ptr noundef %29, i32 noundef %31, i32 noundef 4, i32 noundef 0)
  ret i32 16
}

; Function Attrs: null_pointer_is_valid sspstrong uwtable
define internal i32 @dissect_chunk_data_trailer(ptr noundef %0, ptr noundef %1, ptr noundef %2, i32 noundef %3) #0 {
  %5 = alloca ptr, align 8
  %6 = alloca ptr, align 8
  %7 = alloca ptr, align 8
  %8 = alloca i32, align 4
  store ptr %0, ptr %5, align 8
  store ptr %1, ptr %6, align 8
  store ptr %2, ptr %7, align 8
  store i32 %3, ptr %8, align 4
  %9 = load ptr, ptr %5, align 8
  %10 = load i32, ptr @hf_gvsp_payloadtype, align 4
  %11 = load ptr, ptr %6, align 8
  %12 = load i32, ptr %8, align 4
  %13 = add i32 %12, 2
  %14 = call ptr @proto_tree_add_item(ptr noundef %9, i32 noundef %10, ptr noundef %11, i32 noundef %13, i32 noundef 2, i32 noundef 0)
  %15 = load ptr, ptr %5, align 8
  %16 = load i32, ptr @hf_gvsp_payloadlength, align 4
  %17 = load ptr, ptr %6, align 8
  %18 = load i32, ptr %8, align 4
  %19 = add i32 %18, 4
  %20 = call ptr @proto_tree_add_item(ptr noundef %15, i32 noundef %16, ptr noundef %17, i32 noundef %19, i32 noundef 4, i32 noundef 0)
  ret i32 8
}

; Function Attrs: null_pointer_is_valid sspstrong uwtable
define internal i32 @dissect_image_trailer(ptr noundef %0, ptr noundef %1, ptr noundef %2, i32 noundef %3) #0 {
  %5 = alloca ptr, align 8
  %6 = alloca ptr, align 8
  %7 = alloca ptr, align 8
  %8 = alloca i32, align 4
  store ptr %0, ptr %5, align 8
  store ptr %1, ptr %6, align 8
  store ptr %2, ptr %7, align 8
  store i32 %3, ptr %8, align 4
  %9 = load ptr, ptr %5, align 8
  %10 = load i32, ptr @hf_gvsp_payloadtype, align 4
  %11 = load ptr, ptr %6, align 8
  %12 = load i32, ptr %8, align 4
  %13 = add i32 %12, 2
  %14 = call ptr @proto_tree_add_item(ptr noundef %9, i32 noundef %10, ptr noundef %11, i32 noundef %13, i32 noundef 2, i32 noundef 0)
  %15 = load ptr, ptr %5, align 8
  %16 = load i32, ptr @hf_gvsp_sizey, align 4
  %17 = load ptr, ptr %6, align 8
  %18 = load i32, ptr %8, align 4
  %19 = add i32 %18, 4
  %20 = call ptr @proto_tree_add_item(ptr noundef %15, i32 noundef %16, ptr noundef %17, i32 noundef %19, i32 noundef 4, i32 noundef 0)
  ret i32 8
}

; Function Attrs: null_pointer_is_valid sspstrong uwtable
define internal void @dissect_packet_trailer(ptr noundef %0, ptr noundef %1, i32 noundef %2, ptr noundef %3, ptr noundef %4) #0 {
  %6 = alloca ptr, align 8
  %7 = alloca ptr, align 8
  %8 = alloca i32, align 4
  %9 = alloca ptr, align 8
  %10 = alloca ptr, align 8
  store ptr %0, ptr %6, align 8
  store ptr %1, ptr %7, align 8
  store i32 %2, ptr %8, align 4
  store ptr %3, ptr %9, align 8
  store ptr %4, ptr %10, align 8
  %11 = load ptr, ptr %10, align 8
  %12 = getelementptr inbounds nuw %struct._gvsp_packet_info, ptr %11, i32 0, i32 3
  %13 = load i16, ptr %12, align 8
  %14 = zext i16 %13 to i32
  switch i32 %14, label %55 [
    i32 1, label %15
    i32 9, label %15
    i32 4, label %23
    i32 5, label %31
    i32 2, label %39
    i32 3, label %39
    i32 6, label %39
    i32 7, label %39
    i32 8, label %39
    i32 11, label %39
    i32 10, label %47
  ]

15:                                               ; preds = %5, %5
  %16 = load ptr, ptr %6, align 8
  %17 = load ptr, ptr %7, align 8
  %18 = load ptr, ptr %9, align 8
  %19 = load i32, ptr %8, align 4
  %20 = call i32 @dissect_image_trailer(ptr noundef %16, ptr noundef %17, ptr noundef %18, i32 noundef %19)
  %21 = load i32, ptr %8, align 4
  %22 = add i32 %21, %20
  store i32 %22, ptr %8, align 4
  br label %56

23:                                               ; preds = %5
  %24 = load ptr, ptr %6, align 8
  %25 = load ptr, ptr %7, align 8
  %26 = load ptr, ptr %9, align 8
  %27 = load i32, ptr %8, align 4
  %28 = call i32 @dissect_chunk_data_trailer(ptr noundef %24, ptr noundef %25, ptr noundef %26, i32 noundef %27)
  %29 = load i32, ptr %8, align 4
  %30 = add i32 %29, %28
  store i32 %30, ptr %8, align 4
  br label %56

31:                                               ; preds = %5
  %32 = load ptr, ptr %6, align 8
  %33 = load ptr, ptr %7, align 8
  %34 = load ptr, ptr %9, align 8
  %35 = load i32, ptr %8, align 4
  %36 = call i32 @dissect_extended_chunk_data_trailer(ptr noundef %32, ptr noundef %33, ptr noundef %34, i32 noundef %35)
  %37 = load i32, ptr %8, align 4
  %38 = add i32 %37, %36
  store i32 %38, ptr %8, align 4
  br label %56

39:                                               ; preds = %5, %5, %5, %5, %5, %5
  %40 = load ptr, ptr %6, align 8
  %41 = load ptr, ptr %7, align 8
  %42 = load ptr, ptr %9, align 8
  %43 = load i32, ptr %8, align 4
  %44 = call i32 @dissect_generic_trailer(ptr noundef %40, ptr noundef %41, ptr noundef %42, i32 noundef %43)
  %45 = load i32, ptr %8, align 4
  %46 = add i32 %45, %44
  store i32 %46, ptr %8, align 4
  br label %56

47:                                               ; preds = %5
  %48 = load ptr, ptr %6, align 8
  %49 = load ptr, ptr %7, align 8
  %50 = load ptr, ptr %9, align 8
  %51 = load i32, ptr %8, align 4
  %52 = call i32 @dissect_multi_part_trailer(ptr noundef %48, ptr noundef %49, ptr noundef %50, i32 noundef %51)
  %53 = load i32, ptr %8, align 4
  %54 = add i32 %53, %52
  store i32 %54, ptr %8, align 4
  br label %56

55:                                               ; preds = %5
  br label %56

56:                                               ; preds = %55, %47, %39, %31, %23, %15
  %57 = load ptr, ptr %10, align 8
  %58 = getelementptr inbounds nuw %struct._gvsp_packet_info, ptr %57, i32 0, i32 0
  %59 = load i32, ptr %58, align 8
  %60 = icmp ne i32 %59, 0
  br i1 %60, label %61, label %67

61:                                               ; preds = %56
  %62 = load ptr, ptr %6, align 8
  %63 = load ptr, ptr %7, align 8
  %64 = load ptr, ptr %9, align 8
  %65 = load i32, ptr %8, align 4
  %66 = call i32 @dissect_extra_chunk_info(ptr noundef %62, ptr noundef %63, ptr noundef %64, i32 noundef %65)
  br label %67

67:                                               ; preds = %61, %56
  ret void
}