; Function Attrs: null_pointer_is_valid sspstrong uwtable
define internal fastcc void @dissect_packet_trailer(ptr noundef %0, ptr noundef %1, i32 noundef range(i32 8, 21) %2, ptr noundef readonly captures(none) %3) unnamed_addr #0 {
  %5 = getelementptr inbounds nuw i8, ptr %3, i64 8
  %6 = load i16, ptr %5, align 8
  switch i16 %6, label %71 [
    i16 1, label %7
    i16 9, label %7
    i16 4, label %15
    i16 5, label %23
    i16 2, label %37
    i16 3, label %37
    i16 6, label %37
    i16 7, label %37
    i16 8, label %37
    i16 11, label %37
    i16 10, label %42
  ]

7:                                                ; preds = %4, %4
  %8 = load i32, ptr @hf_gvsp_payloadtype, align 4
  %9 = add nuw nsw i32 %2, 2
  %10 = tail call ptr @proto_tree_add_item(ptr noundef %0, i32 noundef %8, ptr noundef %1, i32 noundef %9, i32 noundef 2, i32 noundef 0)
  %11 = load i32, ptr @hf_gvsp_sizey, align 4
  %12 = add nuw nsw i32 %2, 4
  %13 = tail call ptr @proto_tree_add_item(ptr noundef %0, i32 noundef %11, ptr noundef %1, i32 noundef %12, i32 noundef 4, i32 noundef 0)
  %14 = add nuw nsw i32 %2, 8
  br label %71

15:                                               ; preds = %4
  %16 = load i32, ptr @hf_gvsp_payloadtype, align 4
  %17 = add nuw nsw i32 %2, 2
  %18 = tail call ptr @proto_tree_add_item(ptr noundef %0, i32 noundef %16, ptr noundef %1, i32 noundef %17, i32 noundef 2, i32 noundef 0)
  %19 = load i32, ptr @hf_gvsp_payloadlength, align 4
  %20 = add nuw nsw i32 %2, 4
  %21 = tail call ptr @proto_tree_add_item(ptr noundef %0, i32 noundef %19, ptr noundef %1, i32 noundef %20, i32 noundef 4, i32 noundef 0)
  %22 = add nuw nsw i32 %2, 8
  br label %71

23:                                               ; preds = %4
  %24 = load i32, ptr @hf_gvsp_payloadtype, align 4
  %25 = add nuw nsw i32 %2, 2
  %26 = tail call ptr @proto_tree_add_item(ptr noundef %0, i32 noundef %24, ptr noundef %1, i32 noundef %25, i32 noundef 2, i32 noundef 0)
  %27 = load i32, ptr @hf_gvsp_payloadlength, align 4
  %28 = add nuw nsw i32 %2, 4
  %29 = tail call ptr @proto_tree_add_item(ptr noundef %0, i32 noundef %27, ptr noundef %1, i32 noundef %28, i32 noundef 4, i32 noundef 0)
  %30 = load i32, ptr @hf_gvsp_sizey, align 4
  %31 = add nuw nsw i32 %2, 8
  %32 = tail call ptr @proto_tree_add_item(ptr noundef %0, i32 noundef %30, ptr noundef %1, i32 noundef %31, i32 noundef 4, i32 noundef 0)
  %33 = load i32, ptr @hf_gvsp_chunk_layout_id_hex, align 4
  %34 = add nuw nsw i32 %2, 12
  %35 = tail call ptr @proto_tree_add_item(ptr noundef %0, i32 noundef %33, ptr noundef %1, i32 noundef %34, i32 noundef 4, i32 noundef 0)
  %36 = add nuw nsw i32 %2, 16
  br label %71

37:                                               ; preds = %4, %4, %4, %4, %4, %4
  %38 = load i32, ptr @hf_gvsp_payloadtype, align 4
  %39 = add nuw nsw i32 %2, 2
  %40 = tail call ptr @proto_tree_add_item(ptr noundef %0, i32 noundef %38, ptr noundef %1, i32 noundef %39, i32 noundef 2, i32 noundef 0)
  %41 = add nuw nsw i32 %2, 4
  br label %71

42:                                               ; preds = %4
  %43 = add nuw nsw i32 %2, 4
  %44 = tail call i32 @tvb_reported_length_remaining(ptr noundef %1, i32 noundef %43)
  %45 = sdiv i32 %44, 16
  %46 = load i32, ptr @hf_gvsp_payloadtype, align 4
  %47 = add nuw nsw i32 %2, 2
  %48 = tail call ptr @proto_tree_add_item(ptr noundef %0, i32 noundef %46, ptr noundef %1, i32 noundef %47, i32 noundef 2, i32 noundef 0)
  %49 = icmp sgt i32 %44, 15
  br i1 %49, label %.lr.ph.i, label %dissect_multi_part_trailer.exit

.lr.ph.i:                                         ; preds = %42
  %50 = add nuw nsw i32 %2, 6
  %51 = add nuw nsw i32 %2, 12
  %invariant.op = add nuw nsw i32 %2, 16
  br label %52

52:                                               ; preds = %.loopexit.i, %.lr.ph.i
  %.02.i = phi i32 [ 0, %.lr.ph.i ], [ %68, %.loopexit.i ]
  %53 = shl i32 %.02.i, 4
  %54 = add nuw nsw i32 %53, %43
  %55 = tail call zeroext i16 @tvb_get_ntohs(ptr noundef %1, i32 noundef %54)
  %56 = load i32, ptr @ett_gvsp_partinfo_trailer, align 4
  %57 = tail call ptr @proto_tree_add_subtree(ptr noundef %0, ptr noundef %1, i32 noundef %54, i32 noundef 16, i32 noundef %56, ptr noundef null, ptr noundef nonnull @.str.716)
  %58 = load i32, ptr @hf_gvsp_multipart_data_type, align 4
  %59 = tail call ptr @proto_tree_add_item(ptr noundef %57, i32 noundef %58, ptr noundef %1, i32 noundef %54, i32 noundef 2, i32 noundef 0)
  %60 = load i32, ptr @hf_gvsp_partlength, align 4
  %61 = add nuw nsw i32 %50, %53
  %62 = tail call ptr @proto_tree_add_item(ptr noundef %57, i32 noundef %60, ptr noundef %1, i32 noundef %61, i32 noundef 6, i32 noundef 0)
  %.off.i = add i16 %55, -1
  %switch.i = icmp ult i16 %.off.i, 9
  br i1 %switch.i, label %.loopexit.i, label %.preheader.i

.preheader.i:                                     ; preds = %52
  %63 = add nuw i32 %53, %51
  %64 = load i32, ptr @hf_gvsp_data_type_specific, align 4
  %65 = tail call ptr @proto_tree_add_item(ptr noundef %57, i32 noundef %64, ptr noundef %1, i32 noundef %63, i32 noundef 4, i32 noundef 0)
  br label %.loopexit.i

.loopexit.i:                                      ; preds = %52, %.preheader.i
  %hf_gvsp_data_type_specific.sink = phi ptr [ @hf_gvsp_data_type_specific, %.preheader.i ], [ @hf_gvsp_sizey, %52 ]
  %invariant.op.sink = phi i32 [ %invariant.op, %.preheader.i ], [ %51, %52 ]
  %66 = load i32, ptr %hf_gvsp_data_type_specific.sink, align 4
  %.reass = add nuw i32 %53, %invariant.op.sink
  %67 = tail call ptr @proto_tree_add_item(ptr noundef %57, i32 noundef %66, ptr noundef %1, i32 noundef %.reass, i32 noundef 4, i32 noundef 0)
  %68 = add nuw nsw i32 %.02.i, 1
  %exitcond.not.i = icmp eq i32 %68, %45
  br i1 %exitcond.not.i, label %dissect_multi_part_trailer.exit, label %52, !llvm.loop !11

dissect_multi_part_trailer.exit:                  ; preds = %.loopexit.i, %42
  %69 = shl nsw i32 %45, 4
  %70 = add i32 %43, %69
  br label %71

71:                                               ; preds = %4, %dissect_multi_part_trailer.exit, %37, %23, %15, %7
  %.0 = phi i32 [ %2, %4 ], [ %70, %dissect_multi_part_trailer.exit ], [ %41, %37 ], [ %36, %23 ], [ %22, %15 ], [ %14, %7 ]
  %72 = load i32, ptr %3, align 8
  %.not = icmp eq i32 %72, 0
  br i1 %.not, label %79, label %73

73:                                               ; preds = %71
  %74 = load i32, ptr @hf_gvsp_chunk_data_payload_length_hex, align 4
  %75 = tail call ptr @proto_tree_add_item(ptr noundef %0, i32 noundef %74, ptr noundef %1, i32 noundef %.0, i32 noundef 4, i32 noundef 0)
  %76 = load i32, ptr @hf_gvsp_chunk_layout_id_hex, align 4
  %77 = add i32 %.0, 4
  %78 = tail call ptr @proto_tree_add_item(ptr noundef %0, i32 noundef %76, ptr noundef %1, i32 noundef %77, i32 noundef 4, i32 noundef 0)
  br label %79

79:                                               ; preds = %73, %71
  ret void
}